target datalayout = "e-m:e-p270:32:32-p271:32:32-p272:64:64-i64:64-i128:128-f80:128-n8:16:32:64-S128"
target triple = "x86_64-pc-linux-gnu"

%struct.darktable_t = type { %struct.dt_codepath_t, i32, i32, ptr, ptr, ptr, ptr, ptr, ptr, ptr, ptr, ptr, ptr, ptr, ptr, ptr, ptr, ptr, ptr, ptr, ptr, ptr, ptr, ptr, ptr, ptr, ptr, ptr, ptr, ptr, [64 x %struct.dt_pthread_mutex_t], %struct.dt_pthread_mutex_t, %struct.dt_pthread_mutex_t, %struct.dt_pthread_mutex_t, %struct.dt_pthread_mutex_t, %struct.dt_pthread_mutex_t, ptr, ptr, ptr, ptr, ptr, ptr, ptr, ptr, ptr, ptr, ptr, ptr, ptr, %struct.dt_lua_state_t, ptr, double, ptr, i32, [47 x i32], i32, i32, ptr, ptr, %struct.dt_sys_resources_t, %struct.dt_backthumb_t, %struct.dt_gimp_t }
%struct.dt_codepath_t = type { i8, [3 x i8] }
%struct.dt_pthread_mutex_t = type { %union.pthread_mutex_t }
%union.pthread_mutex_t = type { %struct.__pthread_mutex_s }
%struct.__pthread_mutex_s = type { i32, i32, i32, i32, i32, i16, i16, %struct.__pthread_internal_list }
%struct.__pthread_internal_list = type { ptr, ptr }
%struct.dt_lua_state_t = type { i32 }
%struct.dt_sys_resources_t = type { i64, i64, ptr, ptr, i32 }
%struct.dt_backthumb_t = type { double, double, i32, i32, i32, i32 }
%struct.dt_gimp_t = type { i32, ptr, ptr, i32, i32 }
%struct.dt_dev_pixelpipe_t = type { %struct.dt_dev_pixelpipe_cache_t, i32, i64, ptr, i32, i32, float, i32, i32, [12 x i8], %struct.dt_iop_buffer_dsc_t, ptr, ptr, ptr, ptr, i32, i32, i32, i32, ptr, i64, i32, i32, float, float, float, i64, %struct.dt_pthread_mutex_t, %struct.dt_pthread_mutex_t, %struct.dt_pthread_mutex_t, i32, i32, i32, %struct.dt_dev_detail_mask_t, i32, i32, i32, i32, i32, i32, i32, i32, i32, i32, i32, i32, i32, i32, [8 x i8], %struct.dt_image_t, i32, ptr, i32, ptr, ptr, ptr, i32, ptr, i64, [8 x i8] }
%struct.dt_dev_pixelpipe_cache_t = type { i32, i64, i64, ptr, ptr, ptr, ptr, ptr, ptr, i64, i32, i64, i64, i32, i32, i32 }
%struct.dt_iop_buffer_dsc_t = type { i32, i32, i32, [6 x [6 x i8]], %struct.anon, [12 x i8], %struct.anon.0, [4 x float], i32, [12 x i8] }
%struct.anon = type { i16, i16 }
%struct.anon.0 = type { i32, [12 x i8], [4 x float] }
%struct.dt_dev_detail_mask_t = type { %struct.dt_iop_roi_t, i64, ptr }
%struct.dt_iop_roi_t = type { i32, i32, i32, i32, float }
%struct.dt_image_t = type { i32, i32, float, float, float, float, float, float, float, [64 x i8], [64 x i8], [128 x i8], [64 x i8], [64 x i8], [64 x i8], [64 x i8], i64, i32, %union.dt_image_correction_data_t, [64 x i8], [64 x i8], [64 x i8], [128 x i8], i32, [256 x i8], i32, i32, i32, i32, i32, i32, i32, i32, i32, i32, float, i32, i32, i32, i32, i32, i32, i64, i64, i64, i64, i32, [12 x i8], %struct.dt_iop_buffer_dsc_t, [9 x float], ptr, i32, i32, %struct.dt_image_raw_parameters_t, %struct.dt_image_geoloc_t, %struct._color_harmony_t, i16, [4 x i16], i32, i32, float, float, [4 x float], [4 x [3 x float]], [4 x float], ptr, ptr, i32, i32, [8 x i8] }
%union.dt_image_correction_data_t = type { %struct.anon.2 }
%struct.anon.2 = type { i32, float, [11 x float], [11 x float], [11 x float], [11 x float], [11 x float] }
%struct.dt_image_raw_parameters_t = type { i32 }
%struct.dt_image_geoloc_t = type { double, double, double }
%struct._color_harmony_t = type { i32, i32, i32 }
%struct.dt_develop_t = type { i32, i32, i32, ptr, double, double, i32, i32, i32, i32, i32, double, i32, i32, i32, ptr, ptr, [8 x i8], %struct.dt_image_t, i32, i32, %struct.dt_pthread_mutex_t, i32, ptr, i32, ptr, i32, ptr, ptr, i32, ptr, ptr, ptr, ptr, i32, i32, ptr, ptr, ptr, ptr, i32, i32, i32, float, float, ptr, i32, %struct.anon.8, %struct.dt_dev_chroma_t, %struct.anon.11, %struct.anon.12, %struct.anon.13, %struct.anon.14, %struct.anon.15, %struct.anon.16, ptr, ptr, %struct.dt_dev_viewport_t, %struct.dt_dev_viewport_t, i32, i32, i32, ptr, [8 x i8] }
%struct.anon.8 = type { %struct.dt_dev_proxy_exposure_t, ptr, %struct.anon.9, %struct.anon.10 }
%struct.dt_dev_proxy_exposure_t = type { ptr, ptr, ptr, ptr }
%struct.anon.9 = type { ptr, ptr, ptr, ptr, ptr, ptr, ptr, ptr, ptr }
%struct.anon.10 = type { ptr, ptr, ptr, ptr, ptr }
%struct.dt_dev_chroma_t = type { ptr, ptr, [4 x double], [4 x double], [4 x double], i32 }
%struct.anon.11 = type { ptr, ptr, ptr }
%struct.anon.12 = type { ptr, ptr, i32, i32, float, float, i32 }
%struct.anon.13 = type { ptr, ptr, i32, i32, i32, float }
%struct.anon.14 = type { ptr }
%struct.anon.15 = type { ptr, i32 }
%struct.anon.16 = type { ptr, ptr, ptr }
%struct.dt_dev_viewport_t = type { ptr, i32, i32, i32, i32, i32, double, double, double, i32, i32, i32, float, float, float, ptr }

@darktable = external global %struct.darktable_t, align 8
@.str.6 = private unnamed_addr constant [1 x i8] zeroinitializer, align 1
@.str.64 = private unnamed_addr constant [21 x i8] c"dev_pixelpipe_change\00", align 1
@.str.65 = private unnamed_addr constant [12 x i8] c" %s%s%s%s%s\00", align 1
@.str.66 = private unnamed_addr constant [9 x i8] c"zoomed, \00", align 1
@.str.67 = private unnamed_addr constant [14 x i8] c"top changed, \00", align 1
@.str.68 = private unnamed_addr constant [12 x i8] c"synch all, \00", align 1
@.str.69 = private unnamed_addr constant [12 x i8] c"pipe remove\00", align 1
@.str.70 = private unnamed_addr constant [10 x i8] c"dimension\00", align 1

; Function Attrs: inlinehint nounwind uwtable
define internal i32 @dt_pthread_mutex_unlock(ptr noundef %0) #6 {
  %2 = alloca ptr, align 8
  store ptr %0, ptr %2, align 8, !tbaa !190
  %3 = load ptr, ptr %2, align 8, !tbaa !190
  %4 = getelementptr inbounds nuw %struct.dt_pthread_mutex_t, ptr %3, i32 0, i32 0
  %5 = call i32 @pthread_mutex_unlock(ptr noundef %4) #17
  ret i32 %5
}

; Function Attrs: inlinehint nounwind uwtable
define internal i32 @dt_pthread_mutex_lock(ptr noundef %0) #6 {
  %2 = alloca ptr, align 8
  store ptr %0, ptr %2, align 8, !tbaa !190
  %3 = load ptr, ptr %2, align 8, !tbaa !190
  %4 = getelementptr inbounds nuw %struct.dt_pthread_mutex_t, ptr %3, i32 0, i32 0
  %5 = call i32 @pthread_mutex_lock(ptr noundef %4) #17
  ret i32 %5
}

; Function Attrs: nounwind uwtable
define void @dt_dev_pixelpipe_change(ptr noundef %0, ptr noundef %1) #0 {
  %3 = alloca ptr, align 8
  %4 = alloca ptr, align 8
  %5 = alloca i32, align 4
  %6 = alloca i32, align 4
  store ptr %0, ptr %3, align 8, !tbaa !6
  store ptr %1, ptr %4, align 8, !tbaa !192
  %7 = load ptr, ptr %4, align 8, !tbaa !192
  %8 = getelementptr inbounds nuw %struct.dt_develop_t, ptr %7, i32 0, i32 21
  %9 = call i32 @dt_pthread_mutex_lock(ptr noundef %8)
  br label %10

10:                                               ; preds = %2
  %11 = load i32, ptr getelementptr inbounds nuw (%struct.darktable_t, ptr @darktable, i32 0, i32 2), align 8, !tbaa !54
  %12 = and i32 33554432, %11
  %13 = icmp ne i32 %12, 0
  br i1 %13, label %14, label %50

14:                                               ; preds = %10
  %15 = load i32, ptr getelementptr inbounds nuw (%struct.darktable_t, ptr @darktable, i32 0, i32 2), align 8, !tbaa !54
  %16 = xor i32 %15, -1
  %17 = and i32 0, %16
  %18 = icmp ne i32 %17, 0
  br i1 %18, label %50, label %19

19:                                               ; preds = %14
  %20 = load ptr, ptr %3, align 8, !tbaa !6
  %21 = load ptr, ptr %3, align 8, !tbaa !6
  %22 = getelementptr inbounds nuw %struct.dt_dev_pixelpipe_t, ptr %21, i32 0, i32 15
  %23 = load i32, ptr %22, align 16, !tbaa !155
  %24 = and i32 %23, 8
  %25 = icmp ne i32 %24, 0
  %26 = select i1 %25, ptr @.str.66, ptr @.str.6
  %27 = load ptr, ptr %3, align 8, !tbaa !6
  %28 = getelementptr inbounds nuw %struct.dt_dev_pixelpipe_t, ptr %27, i32 0, i32 15
  %29 = load i32, ptr %28, align 16, !tbaa !155
  %30 = and i32 %29, 1
  %31 = icmp ne i32 %30, 0
  %32 = select i1 %31, ptr @.str.67, ptr @.str.6
  %33 = load ptr, ptr %3, align 8, !tbaa !6
  %34 = getelementptr inbounds nuw %struct.dt_dev_pixelpipe_t, ptr %33, i32 0, i32 15
  %35 = load i32, ptr %34, align 16, !tbaa !155
  %36 = and i32 %35, 4
  %37 = icmp ne i32 %36, 0
  %38 = select i1 %37, ptr @.str.68, ptr @.str.6
  %39 = load ptr, ptr %3, align 8, !tbaa !6
  %40 = getelementptr inbounds nuw %struct.dt_dev_pixelpipe_t, ptr %39, i32 0, i32 15
  %41 = load i32, ptr %40, align 16, !tbaa !155
  %42 = and i32 %41, 2
  %43 = icmp ne i32 %42, 0
  %44 = select i1 %43, ptr @.str.69, ptr @.str.6
  %45 = load ptr, ptr %3, align 8, !tbaa !6
  %46 = getelementptr inbounds nuw %struct.dt_dev_pixelpipe_t, ptr %45, i32 0, i32 15
  %47 = load i32, ptr %46, align 16, !tbaa !155
  %48 = icmp eq i32 %47, 0
  %49 = select i1 %48, ptr @.str.70, ptr @.str.6
  call void (ptr, ptr, ptr, i32, ptr, ptr, ptr, ...) @dt_print_pipe_ext(ptr noundef @.str.64, ptr noundef %20, ptr noundef null, i32 noundef -2, ptr noundef null, ptr noundef null, ptr noundef @.str.65, ptr noundef %26, ptr noundef %32, ptr noundef %38, ptr noundef %44, ptr noundef %49)
  br label %50

50:                                               ; preds = %19, %14, %10
  br label %51

51:                                               ; preds = %50
  %52 = load ptr, ptr %3, align 8, !tbaa !6
  %53 = getelementptr inbounds nuw %struct.dt_dev_pixelpipe_t, ptr %52, i32 0, i32 15
  %54 = load i32, ptr %53, align 16, !tbaa !155
  %55 = and i32 %54, 7
  %56 = icmp ne i32 %55, 0
  br i1 %56, label %57, label %102

57:                                               ; preds = %51
  call void @llvm.lifetime.start.p0(i64 4, ptr %5) #17
  %58 = load ptr, ptr %3, align 8, !tbaa !6
  %59 = getelementptr inbounds nuw %struct.dt_dev_pixelpipe_t, ptr %58, i32 0, i32 15
  %60 = load i32, ptr %59, align 16, !tbaa !155
  %61 = and i32 %60, 6
  store i32 %61, ptr %5, align 4, !tbaa !11
  call void @llvm.lifetime.start.p0(i64 4, ptr %6) #17
  %62 = load ptr, ptr %3, align 8, !tbaa !6
  %63 = getelementptr inbounds nuw %struct.dt_dev_pixelpipe_t, ptr %62, i32 0, i32 15
  %64 = load i32, ptr %63, align 16, !tbaa !155
  %65 = and i32 %64, 2
  store i32 %65, ptr %6, align 4, !tbaa !11
  %66 = load ptr, ptr %3, align 8, !tbaa !6
  %67 = getelementptr inbounds nuw %struct.dt_dev_pixelpipe_t, ptr %66, i32 0, i32 15
  %68 = load i32, ptr %67, align 16, !tbaa !155
  %69 = and i32 %68, 1
  %70 = icmp ne i32 %69, 0
  br i1 %70, label %71, label %77

71:                                               ; preds = %57
  %72 = load i32, ptr %5, align 4, !tbaa !11
  %73 = icmp ne i32 %72, 0
  br i1 %73, label %77, label %74

74:                                               ; preds = %71
  %75 = load ptr, ptr %3, align 8, !tbaa !6
  %76 = load ptr, ptr %4, align 8, !tbaa !192
  call void @dt_dev_pixelpipe_synch_top(ptr noundef %75, ptr noundef %76)
  br label %77

77:                                               ; preds = %74, %71, %57
  %78 = load ptr, ptr %3, align 8, !tbaa !6
  %79 = getelementptr inbounds nuw %struct.dt_dev_pixelpipe_t, ptr %78, i32 0, i32 15
  %80 = load i32, ptr %79, align 16, !tbaa !155
  %81 = and i32 %80, 4
  %82 = icmp ne i32 %81, 0
  br i1 %82, label %83, label %89

83:                                               ; preds = %77
  %84 = load i32, ptr %6, align 4, !tbaa !11
  %85 = icmp ne i32 %84, 0
  br i1 %85, label %89, label %86

86:                                               ; preds = %83
  %87 = load ptr, ptr %3, align 8, !tbaa !6
  %88 = load ptr, ptr %4, align 8, !tbaa !192
  call void @dt_dev_pixelpipe_synch_all(ptr noundef %87, ptr noundef %88)
  br label %89

89:                                               ; preds = %86, %83, %77
  %90 = load ptr, ptr %3, align 8, !tbaa !6
  %91 = getelementptr inbounds nuw %struct.dt_dev_pixelpipe_t, ptr %90, i32 0, i32 15
  %92 = load i32, ptr %91, align 16, !tbaa !155
  %93 = and i32 %92, 2
  %94 = icmp ne i32 %93, 0
  br i1 %94, label %95, label %101

95:                                               ; preds = %89
  %96 = load ptr, ptr %3, align 8, !tbaa !6
  call void @dt_dev_pixelpipe_cleanup_nodes(ptr noundef %96)
  %97 = load ptr, ptr %3, align 8, !tbaa !6
  %98 = load ptr, ptr %4, align 8, !tbaa !192
  call void @dt_dev_pixelpipe_create_nodes(ptr noundef %97, ptr noundef %98)
  %99 = load ptr, ptr %3, align 8, !tbaa !6
  %100 = load ptr, ptr %4, align 8, !tbaa !192
  call void @dt_dev_pixelpipe_synch_all(ptr noundef %99, ptr noundef %100)
  br label %101

101:                                              ; preds = %95, %89
  call void @llvm.lifetime.end.p0(i64 4, ptr %6) #17
  call void @llvm.lifetime.end.p0(i64 4, ptr %5) #17
  br label %102

102:                                              ; preds = %101, %51
  %103 = load ptr, ptr %3, align 8, !tbaa !6
  %104 = getelementptr inbounds nuw %struct.dt_dev_pixelpipe_t, ptr %103, i32 0, i32 15
  store i32 0, ptr %104, align 16, !tbaa !155
  %105 = load ptr, ptr %4, align 8, !tbaa !192
  %106 = getelementptr inbounds nuw %struct.dt_develop_t, ptr %105, i32 0, i32 21
  %107 = call i32 @dt_pthread_mutex_unlock(ptr noundef %106)
  %108 = load ptr, ptr %3, align 8, !tbaa !6
  %109 = load ptr, ptr %4, align 8, !tbaa !192
  %110 = load ptr, ptr %3, align 8, !tbaa !6
  %111 = getelementptr inbounds nuw %struct.dt_dev_pixelpipe_t, ptr %110, i32 0, i32 4
  %112 = load i32, ptr %111, align 16, !tbaa !158
  %113 = load ptr, ptr %3, align 8, !tbaa !6
  %114 = getelementptr inbounds nuw %struct.dt_dev_pixelpipe_t, ptr %113, i32 0, i32 5
  %115 = load i32, ptr %114, align 4, !tbaa !162
  %116 = load ptr, ptr %3, align 8, !tbaa !6
  %117 = getelementptr inbounds nuw %struct.dt_dev_pixelpipe_t, ptr %116, i32 0, i32 7
  %118 = load ptr, ptr %3, align 8, !tbaa !6
  %119 = getelementptr inbounds nuw %struct.dt_dev_pixelpipe_t, ptr %118, i32 0, i32 8
  call void @dt_dev_pixelpipe_get_dimensions(ptr noundef %108, ptr noundef %109, i32 noundef %112, i32 noundef %115, ptr noundef %117, ptr noundef %119)
  ret void
}