; Function Attrs: nounwind uwtable
define void @dt_dev_pixelpipe_change(ptr noundef %0, ptr noundef %1) local_unnamed_addr #0 {
  %3 = getelementptr inbounds nuw i8, ptr %1, i64 1976
  %4 = tail call i32 @pthread_mutex_lock(ptr noundef nonnull %3) #27
  %5 = load i32, ptr getelementptr inbounds nuw (i8, ptr @darktable, i64 8), align 8, !tbaa !48
  %6 = and i32 %5, 33554432
  %.not = icmp eq i32 %6, 0
  br i1 %.not, label %20, label %7

7:                                                ; preds = %2
  %8 = getelementptr inbounds nuw i8, ptr %0, i64 336
  %9 = load i32, ptr %8, align 16, !tbaa !195
  %10 = and i32 %9, 8
  %.not34 = icmp eq i32 %10, 0
  %11 = select i1 %.not34, ptr @.str.6, ptr @.str.66
  %12 = and i32 %9, 1
  %.not35 = icmp eq i32 %12, 0
  %13 = select i1 %.not35, ptr @.str.6, ptr @.str.67
  %14 = and i32 %9, 4
  %.not36 = icmp eq i32 %14, 0
  %15 = select i1 %.not36, ptr @.str.6, ptr @.str.68
  %16 = and i32 %9, 2
  %.not37 = icmp eq i32 %16, 0
  %17 = select i1 %.not37, ptr @.str.6, ptr @.str.69
  %18 = icmp eq i32 %9, 0
  %19 = select i1 %18, ptr @.str.70, ptr @.str.6
  tail call void (ptr, ptr, ptr, i32, ptr, ptr, ptr, ...) @dt_print_pipe_ext(ptr noundef nonnull @.str.64, ptr noundef %0, ptr noundef null, i32 noundef -2, ptr noundef null, ptr noundef null, ptr noundef nonnull @.str.65, ptr noundef nonnull %11, ptr noundef nonnull %13, ptr noundef nonnull %15, ptr noundef nonnull %17, ptr noundef nonnull %19)
  br label %20

20:                                               ; preds = %2, %7
  %21 = getelementptr inbounds nuw i8, ptr %0, i64 336
  %22 = load i32, ptr %21, align 16, !tbaa !195
  %23 = and i32 %22, 7
  %.not38 = icmp eq i32 %23, 0
  br i1 %.not38, label %37, label %24

24:                                               ; preds = %20
  %25 = and i32 %22, 2
  %or.cond.not = icmp eq i32 %23, 1
  br i1 %or.cond.not, label %26, label %27

26:                                               ; preds = %24
  tail call void @dt_dev_pixelpipe_synch_top(ptr noundef nonnull %0, ptr noundef nonnull %1)
  %.pre = load i32, ptr %21, align 16, !tbaa !195
  br label %27

27:                                               ; preds = %26, %24
  %28 = phi i32 [ %.pre, %26 ], [ %22, %24 ]
  %29 = and i32 %28, 4
  %30 = icmp eq i32 %29, 0
  %31 = icmp ne i32 %25, 0
  %or.cond3 = or i1 %31, %30
  br i1 %or.cond3, label %33, label %32

32:                                               ; preds = %27
  tail call void @dt_dev_pixelpipe_synch_all(ptr noundef nonnull %0, ptr noundef nonnull %1)
  %.pre40 = load i32, ptr %21, align 16, !tbaa !195
  br label %33

33:                                               ; preds = %32, %27
  %34 = phi i32 [ %.pre40, %32 ], [ %28, %27 ]
  %35 = and i32 %34, 2
  %.not39 = icmp eq i32 %35, 0
  br i1 %.not39, label %37, label %36

36:                                               ; preds = %33
  tail call void @dt_dev_pixelpipe_cleanup_nodes(ptr noundef nonnull %0)
  tail call void @dt_dev_pixelpipe_create_nodes(ptr noundef nonnull %0, ptr noundef nonnull %1)
  tail call void @dt_dev_pixelpipe_synch_all(ptr noundef nonnull %0, ptr noundef nonnull %1)
  br label %37

37:                                               ; preds = %33, %36, %20
  store i32 0, ptr %21, align 16, !tbaa !195
  %38 = tail call i32 @pthread_mutex_unlock(ptr noundef nonnull %3) #27
  %39 = getelementptr inbounds nuw i8, ptr %0, i64 144
  %40 = load i32, ptr %39, align 16, !tbaa !139
  %41 = getelementptr inbounds nuw i8, ptr %0, i64 148
  %42 = load i32, ptr %41, align 4, !tbaa !143
  %43 = getelementptr inbounds nuw i8, ptr %0, i64 156
  %44 = getelementptr inbounds nuw i8, ptr %0, i64 160
  tail call void @dt_dev_pixelpipe_get_dimensions(ptr noundef nonnull %0, ptr nonnull poison, i32 noundef %40, i32 noundef %42, ptr noundef nonnull %43, ptr noundef nonnull %44)
  ret void
}